target datalayout = "e-m:e-p270:32:32-p271:32:32-p272:64:64-i64:64-i128:128-f80:128-n8:16:32:64-S128"
target triple = "x86_64-pc-linux-gnu"

%"class.OpenImageIO::v3_1_0::DeepData" = type <{ ptr, i64, i32, [4 x i8] }>
%"struct.OpenImageIO::v3_1_0::TypeDesc" = type { i8, i8, i8, i8, i32 }
%"class.std::vector" = type { %"struct.std::_Vector_base" }
%"struct.std::_Vector_base" = type { %"struct.std::_Vector_base<OpenImageIO::v3_1_0::TypeDesc, std::allocator<OpenImageIO::v3_1_0::TypeDesc>>::_Vector_impl" }
%"struct.std::_Vector_base<OpenImageIO::v3_1_0::TypeDesc, std::allocator<OpenImageIO::v3_1_0::TypeDesc>>::_Vector_impl" = type { %"struct.std::_Vector_base<OpenImageIO::v3_1_0::TypeDesc, std::allocator<OpenImageIO::v3_1_0::TypeDesc>>::_Vector_impl_data" }
%"struct.std::_Vector_base<OpenImageIO::v3_1_0::TypeDesc, std::allocator<OpenImageIO::v3_1_0::TypeDesc>>::_Vector_impl_data" = type { ptr, ptr, ptr }
%"class.std::vector.0" = type { %"struct.std::_Vector_base.1" }
%"struct.std::_Vector_base.1" = type { %"struct.std::_Vector_base<std::__cxx11::basic_string<char>, std::allocator<std::__cxx11::basic_string<char>>>::_Vector_impl" }
%"struct.std::_Vector_base<std::__cxx11::basic_string<char>, std::allocator<std::__cxx11::basic_string<char>>>::_Vector_impl" = type { %"struct.std::_Vector_base<std::__cxx11::basic_string<char>, std::allocator<std::__cxx11::basic_string<char>>>::_Vector_impl_data" }
%"struct.std::_Vector_base<std::__cxx11::basic_string<char>, std::allocator<std::__cxx11::basic_string<char>>>::_Vector_impl_data" = type { ptr, ptr, ptr }
%"class.OpenImageIO::v3_1_0::DeepData::Impl" = type <{ %"class.std::vector", %"class.std::vector.10", %"class.std::vector.10", %"class.std::vector.15", %"class.std::vector.15", %"class.std::vector.15", %"class.std::vector.20", %"class.std::vector.0", %"class.std::vector.25", i64, i32, i32, i32, i32, i32, i32, i8, %"class.OpenImageIO::v3_1_0::spin_mutex", [6 x i8] }>
%"class.std::vector.10" = type { %"struct.std::_Vector_base.11" }
%"struct.std::_Vector_base.11" = type { %"struct.std::_Vector_base<unsigned long, std::allocator<unsigned long>>::_Vector_impl" }
%"struct.std::_Vector_base<unsigned long, std::allocator<unsigned long>>::_Vector_impl" = type { %"struct.std::_Vector_base<unsigned long, std::allocator<unsigned long>>::_Vector_impl_data" }
%"struct.std::_Vector_base<unsigned long, std::allocator<unsigned long>>::_Vector_impl_data" = type { ptr, ptr, ptr }
%"class.std::vector.15" = type { %"struct.std::_Vector_base.16" }
%"struct.std::_Vector_base.16" = type { %"struct.std::_Vector_base<unsigned int, std::allocator<unsigned int>>::_Vector_impl" }
%"struct.std::_Vector_base<unsigned int, std::allocator<unsigned int>>::_Vector_impl" = type { %"struct.std::_Vector_base<unsigned int, std::allocator<unsigned int>>::_Vector_impl_data" }
%"struct.std::_Vector_base<unsigned int, std::allocator<unsigned int>>::_Vector_impl_data" = type { ptr, ptr, ptr }
%"class.std::vector.20" = type { %"struct.std::_Vector_base.21" }
%"struct.std::_Vector_base.21" = type { %"struct.std::_Vector_base<char, std::allocator<char>>::_Vector_impl" }
%"struct.std::_Vector_base<char, std::allocator<char>>::_Vector_impl" = type { %"struct.std::_Vector_base<char, std::allocator<char>>::_Vector_impl_data" }
%"struct.std::_Vector_base<char, std::allocator<char>>::_Vector_impl_data" = type { ptr, ptr, ptr }
%"class.std::vector.25" = type { %"struct.std::_Vector_base.26" }
%"struct.std::_Vector_base.26" = type { %"struct.std::_Vector_base<int, std::allocator<int>>::_Vector_impl" }
%"struct.std::_Vector_base<int, std::allocator<int>>::_Vector_impl" = type { %"struct.std::_Vector_base<int, std::allocator<int>>::_Vector_impl_data" }
%"struct.std::_Vector_base<int, std::allocator<int>>::_Vector_impl_data" = type { ptr, ptr, ptr }
%"class.OpenImageIO::v3_1_0::spin_mutex" = type { %"struct.std::atomic_flag" }
%"struct.std::atomic_flag" = type { %"struct.std::__atomic_flag_base" }
%"struct.std::__atomic_flag_base" = type { i8 }

; Function Attrs: mustprogress nounwind uwtable
define linkonce_odr noundef zeroext i1 @_ZNK11OpenImageIO6v3_1_08TypeDesceqERKS1_(ptr noundef nonnull align 4 dereferenceable(8) %0, ptr noundef nonnull align 4 dereferenceable(8) %1) #5 comdat align 2 {
  %3 = alloca ptr, align 8
  %4 = alloca ptr, align 8
  store ptr %0, ptr %3, align 8, !tbaa !63
  store ptr %1, ptr %4, align 8, !tbaa !63
  %5 = load ptr, ptr %3, align 8
  %6 = getelementptr inbounds nuw %"struct.OpenImageIO::v3_1_0::TypeDesc", ptr %5, i32 0, i32 0
  %7 = load i8, ptr %6, align 4, !tbaa !117
  %8 = zext i8 %7 to i32
  %9 = load ptr, ptr %4, align 8, !tbaa !63
  %10 = getelementptr inbounds nuw %"struct.OpenImageIO::v3_1_0::TypeDesc", ptr %9, i32 0, i32 0
  %11 = load i8, ptr %10, align 4, !tbaa !117
  %12 = zext i8 %11 to i32
  %13 = icmp eq i32 %8, %12
  br i1 %13, label %14, label %39

14:                                               ; preds = %2
  %15 = getelementptr inbounds nuw %"struct.OpenImageIO::v3_1_0::TypeDesc", ptr %5, i32 0, i32 1
  %16 = load i8, ptr %15, align 1, !tbaa !118
  %17 = zext i8 %16 to i32
  %18 = load ptr, ptr %4, align 8, !tbaa !63
  %19 = getelementptr inbounds nuw %"struct.OpenImageIO::v3_1_0::TypeDesc", ptr %18, i32 0, i32 1
  %20 = load i8, ptr %19, align 1, !tbaa !118
  %21 = zext i8 %20 to i32
  %22 = icmp eq i32 %17, %21
  br i1 %22, label %23, label %39

23:                                               ; preds = %14
  %24 = getelementptr inbounds nuw %"struct.OpenImageIO::v3_1_0::TypeDesc", ptr %5, i32 0, i32 2
  %25 = load i8, ptr %24, align 2, !tbaa !119
  %26 = zext i8 %25 to i32
  %27 = load ptr, ptr %4, align 8, !tbaa !63
  %28 = getelementptr inbounds nuw %"struct.OpenImageIO::v3_1_0::TypeDesc", ptr %27, i32 0, i32 2
  %29 = load i8, ptr %28, align 2, !tbaa !119
  %30 = zext i8 %29 to i32
  %31 = icmp eq i32 %26, %30
  br i1 %31, label %32, label %39

32:                                               ; preds = %23
  %33 = getelementptr inbounds nuw %"struct.OpenImageIO::v3_1_0::TypeDesc", ptr %5, i32 0, i32 4
  %34 = load i32, ptr %33, align 4, !tbaa !121
  %35 = load ptr, ptr %4, align 8, !tbaa !63
  %36 = getelementptr inbounds nuw %"struct.OpenImageIO::v3_1_0::TypeDesc", ptr %35, i32 0, i32 4
  %37 = load i32, ptr %36, align 4, !tbaa !121
  %38 = icmp eq i32 %34, %37
  br label %39

39:                                               ; preds = %32, %23, %14, %2
  %40 = phi i1 [ false, %23 ], [ false, %14 ], [ false, %2 ], [ %38, %32 ]
  ret i1 %40
}

; Function Attrs: mustprogress nounwind uwtable
define linkonce_odr void @_ZN11OpenImageIO6v3_1_08TypeDescC2ENS1_8BASETYPEENS1_9AGGREGATEENS1_12VECSEMANTICSEi(ptr noundef nonnull align 4 dereferenceable(8) %0, i32 noundef %1, i32 noundef %2, i32 noundef %3, i32 noundef %4) unnamed_addr #5 comdat align 2 {
  %6 = alloca ptr, align 8
  %7 = alloca i32, align 4
  %8 = alloca i32, align 4
  %9 = alloca i32, align 4
  %10 = alloca i32, align 4
  store ptr %0, ptr %6, align 8, !tbaa !63
  store i32 %1, ptr %7, align 4, !tbaa !111
  store i32 %2, ptr %8, align 4, !tbaa !113
  store i32 %3, ptr %9, align 4, !tbaa !115
  store i32 %4, ptr %10, align 4, !tbaa !71
  %11 = load ptr, ptr %6, align 8
  %12 = getelementptr inbounds nuw %"struct.OpenImageIO::v3_1_0::TypeDesc", ptr %11, i32 0, i32 0
  %13 = load i32, ptr %7, align 4, !tbaa !111
  %14 = trunc i32 %13 to i8
  store i8 %14, ptr %12, align 4, !tbaa !117
  %15 = getelementptr inbounds nuw %"struct.OpenImageIO::v3_1_0::TypeDesc", ptr %11, i32 0, i32 1
  %16 = load i32, ptr %8, align 4, !tbaa !113
  %17 = trunc i32 %16 to i8
  store i8 %17, ptr %15, align 1, !tbaa !118
  %18 = getelementptr inbounds nuw %"struct.OpenImageIO::v3_1_0::TypeDesc", ptr %11, i32 0, i32 2
  %19 = load i32, ptr %9, align 4, !tbaa !115
  %20 = trunc i32 %19 to i8
  store i8 %20, ptr %18, align 2, !tbaa !119
  %21 = getelementptr inbounds nuw %"struct.OpenImageIO::v3_1_0::TypeDesc", ptr %11, i32 0, i32 3
  store i8 0, ptr %21, align 1, !tbaa !120
  %22 = getelementptr inbounds nuw %"struct.OpenImageIO::v3_1_0::TypeDesc", ptr %11, i32 0, i32 4
  %23 = load i32, ptr %10, align 4, !tbaa !71
  store i32 %23, ptr %22, align 4, !tbaa !121
  ret void
}

; Function Attrs: mustprogress nounwind uwtable
define linkonce_odr noundef nonnull align 4 dereferenceable(8) ptr @_ZNSt6vectorIN11OpenImageIO6v3_1_08TypeDescESaIS2_EEixEm(ptr noundef nonnull align 8 dereferenceable(24) %0, i64 noundef %1) #5 comdat align 2 {
  %3 = alloca ptr, align 8
  %4 = alloca i64, align 8
  store ptr %0, ptr %3, align 8, !tbaa !108
  store i64 %1, ptr %4, align 8, !tbaa !64
  %5 = load ptr, ptr %3, align 8
  %6 = getelementptr inbounds nuw %"struct.std::_Vector_base", ptr %5, i32 0, i32 0
  %7 = getelementptr inbounds nuw %"struct.std::_Vector_base<OpenImageIO::v3_1_0::TypeDesc, std::allocator<OpenImageIO::v3_1_0::TypeDesc>>::_Vector_impl_data", ptr %6, i32 0, i32 0
  %8 = load ptr, ptr %7, align 8, !tbaa !110
  %9 = load i64, ptr %4, align 8, !tbaa !64
  %10 = getelementptr inbounds nuw %"struct.OpenImageIO::v3_1_0::TypeDesc", ptr %8, i64 %9
  ret ptr %10
}

; Function Attrs: mustprogress nounwind uwtable
define linkonce_odr noundef zeroext i1 @_ZNK11OpenImageIO6v3_1_08TypeDescneERKS1_(ptr noundef nonnull align 4 dereferenceable(8) %0, ptr noundef nonnull align 4 dereferenceable(8) %1) #5 comdat align 2 {
  %3 = alloca ptr, align 8
  %4 = alloca ptr, align 8
  store ptr %0, ptr %3, align 8, !tbaa !63
  store ptr %1, ptr %4, align 8, !tbaa !63
  %5 = load ptr, ptr %3, align 8
  %6 = load ptr, ptr %4, align 8, !tbaa !63
  %7 = call noundef zeroext i1 @_ZNK11OpenImageIO6v3_1_08TypeDesceqERKS1_(ptr noundef nonnull align 4 dereferenceable(8) %5, ptr noundef nonnull align 4 dereferenceable(8) %6) #3
  %8 = xor i1 %7, true
  ret i1 %8
}

; Function Attrs: mustprogress nounwind uwtable
define i64 @_ZNK11OpenImageIO6v3_1_08DeepData11channeltypeEi(ptr noundef nonnull align 8 dereferenceable(20) %0, i32 noundef %1) #5 align 2 {
  %3 = alloca %"struct.OpenImageIO::v3_1_0::TypeDesc", align 4
  %4 = alloca ptr, align 8
  %5 = alloca i32, align 4
  store ptr %0, ptr %4, align 8, !tbaa !3
  store i32 %1, ptr %5, align 4, !tbaa !71
  %6 = load ptr, ptr %4, align 8
  %7 = load i32, ptr %5, align 4, !tbaa !71
  %8 = icmp sge i32 %7, 0
  br i1 %8, label %9, label %21

9:                                                ; preds = %2
  %10 = load i32, ptr %5, align 4, !tbaa !71
  %11 = getelementptr inbounds nuw %"class.OpenImageIO::v3_1_0::DeepData", ptr %6, i32 0, i32 2
  %12 = load i32, ptr %11, align 8, !tbaa !14
  %13 = icmp slt i32 %10, %12
  br i1 %13, label %14, label %21

14:                                               ; preds = %9
  %15 = getelementptr inbounds nuw %"class.OpenImageIO::v3_1_0::DeepData", ptr %6, i32 0, i32 0
  %16 = load ptr, ptr %15, align 8, !tbaa !8
  %17 = getelementptr inbounds nuw %"class.OpenImageIO::v3_1_0::DeepData::Impl", ptr %16, i32 0, i32 0
  %18 = load i32, ptr %5, align 4, !tbaa !71
  %19 = sext i32 %18 to i64
  %20 = call noundef nonnull align 4 dereferenceable(8) ptr @_ZNSt6vectorIN11OpenImageIO6v3_1_08TypeDescESaIS2_EEixEm(ptr noundef nonnull align 8 dereferenceable(24) %17, i64 noundef %19) #3
  call void @llvm.memcpy.p0.p0.i64(ptr align 4 %3, ptr align 4 %20, i64 8, i1 false), !tbaa.struct !106
  br label %22

21:                                               ; preds = %9, %2
  call void @_ZN11OpenImageIO6v3_1_08TypeDescC2ENS1_8BASETYPEENS1_9AGGREGATEENS1_12VECSEMANTICSEi(ptr noundef nonnull align 4 dereferenceable(8) %3, i32 noundef 0, i32 noundef 1, i32 noundef 0, i32 noundef 0) #3
  br label %22

22:                                               ; preds = %21, %14
  %23 = load i64, ptr %3, align 4
  ret i64 %23
}

; Function Attrs: mustprogress nounwind uwtable
define noundef i64 @_ZNK11OpenImageIO6v3_1_08DeepData10samplesizeEv(ptr noundef nonnull align 8 dereferenceable(20) %0) #5 align 2 {
  %2 = alloca ptr, align 8
  store ptr %0, ptr %2, align 8, !tbaa !3
  %3 = load ptr, ptr %2, align 8
  %4 = getelementptr inbounds nuw %"class.OpenImageIO::v3_1_0::DeepData", ptr %3, i32 0, i32 0
  %5 = load ptr, ptr %4, align 8, !tbaa !8
  %6 = getelementptr inbounds nuw %"class.OpenImageIO::v3_1_0::DeepData::Impl", ptr %5, i32 0, i32 9
  %7 = load i64, ptr %6, align 8, !tbaa !74
  ret i64 %7
}

; Function Attrs: mustprogress nounwind uwtable
define noundef zeroext i1 @_ZNK11OpenImageIO6v3_1_08DeepData17same_channeltypesERKS1_(ptr noundef nonnull align 8 dereferenceable(20) %0, ptr noundef nonnull align 8 dereferenceable(20) %1) #5 align 2 {
  %3 = alloca i1, align 1
  %4 = alloca ptr, align 8
  %5 = alloca ptr, align 8
  %6 = alloca i32, align 4
  %7 = alloca i32, align 4
  %8 = alloca %"struct.OpenImageIO::v3_1_0::TypeDesc", align 4
  %9 = alloca %"struct.OpenImageIO::v3_1_0::TypeDesc", align 4
  store ptr %0, ptr %4, align 8, !tbaa !3
  store ptr %1, ptr %5, align 8, !tbaa !3
  %10 = load ptr, ptr %4, align 8
  %11 = getelementptr inbounds nuw %"class.OpenImageIO::v3_1_0::DeepData", ptr %10, i32 0, i32 2
  %12 = load i32, ptr %11, align 8, !tbaa !14
  %13 = load ptr, ptr %5, align 8, !tbaa !3
  %14 = getelementptr inbounds nuw %"class.OpenImageIO::v3_1_0::DeepData", ptr %13, i32 0, i32 2
  %15 = load i32, ptr %14, align 8, !tbaa !14
  %16 = icmp ne i32 %12, %15
  br i1 %16, label %17, label %18

17:                                               ; preds = %2
  store i1 false, ptr %3, align 1
  br label %46

18:                                               ; preds = %2
  %19 = call noundef i64 @_ZNK11OpenImageIO6v3_1_08DeepData10samplesizeEv(ptr noundef nonnull align 8 dereferenceable(20) %10)
  %20 = load ptr, ptr %5, align 8, !tbaa !3
  %21 = call noundef i64 @_ZNK11OpenImageIO6v3_1_08DeepData10samplesizeEv(ptr noundef nonnull align 8 dereferenceable(20) %20)
  %22 = icmp ne i64 %19, %21
  br i1 %22, label %23, label %24

23:                                               ; preds = %18
  store i1 false, ptr %3, align 1
  br label %46

24:                                               ; preds = %18
  call void @llvm.lifetime.start.p0(i64 4, ptr %6) #3
  store i32 0, ptr %6, align 4, !tbaa !71
  br label %25

25:                                               ; preds = %40, %24
  %26 = load i32, ptr %6, align 4, !tbaa !71
  %27 = getelementptr inbounds nuw %"class.OpenImageIO::v3_1_0::DeepData", ptr %10, i32 0, i32 2
  %28 = load i32, ptr %27, align 8, !tbaa !14
  %29 = icmp slt i32 %26, %28
  br i1 %29, label %31, label %30

30:                                               ; preds = %25
  store i32 2, ptr %7, align 4
  br label %43

31:                                               ; preds = %25
  call void @llvm.lifetime.start.p0(i64 8, ptr %8) #3
  %32 = load i32, ptr %6, align 4, !tbaa !71
  %33 = call i64 @_ZNK11OpenImageIO6v3_1_08DeepData11channeltypeEi(ptr noundef nonnull align 8 dereferenceable(20) %10, i32 noundef %32)
  store i64 %33, ptr %8, align 4
  call void @llvm.lifetime.start.p0(i64 8, ptr %9) #3
  %34 = load ptr, ptr %5, align 8, !tbaa !3
  %35 = load i32, ptr %6, align 4, !tbaa !71
  %36 = call i64 @_ZNK11OpenImageIO6v3_1_08DeepData11channeltypeEi(ptr noundef nonnull align 8 dereferenceable(20) %34, i32 noundef %35)
  store i64 %36, ptr %9, align 4
  %37 = call noundef zeroext i1 @_ZNK11OpenImageIO6v3_1_08TypeDescneERKS1_(ptr noundef nonnull align 4 dereferenceable(8) %8, ptr noundef nonnull align 4 dereferenceable(8) %9) #3
  call void @llvm.lifetime.end.p0(i64 8, ptr %9) #3
  call void @llvm.lifetime.end.p0(i64 8, ptr %8) #3
  br i1 %37, label %38, label %39

38:                                               ; preds = %31
  store i1 false, ptr %3, align 1
  store i32 1, ptr %7, align 4
  br label %43

39:                                               ; preds = %31
  br label %40

40:                                               ; preds = %39
  %41 = load i32, ptr %6, align 4, !tbaa !71
  %42 = add nsw i32 %41, 1
  store i32 %42, ptr %6, align 4, !tbaa !71
  br label %25, !llvm.loop !424

43:                                               ; preds = %38, %30
  call void @llvm.lifetime.end.p0(i64 4, ptr %6) #3
  %44 = load i32, ptr %7, align 4
  switch i32 %44, label %48 [
    i32 2, label %45
    i32 1, label %46
  ]

45:                                               ; preds = %43
  store i1 true, ptr %3, align 1
  br label %46

46:                                               ; preds = %45, %43, %23, %17
  %47 = load i1, ptr %3, align 1
  ret i1 %47

48:                                               ; preds = %43
  unreachable
}