; Function Attrs: mustprogress nofree norecurse nosync nounwind willreturn memory(read, inaccessiblemem: none) uwtable
define noundef zeroext i1 @_ZNK11OpenImageIO6v3_1_08DeepData17same_channeltypesERKS1_(ptr noundef nonnull readonly align 8 captures(none) dereferenceable(20) %0, ptr noundef nonnull readonly align 8 captures(none) dereferenceable(20) %1) local_unnamed_addr #12 align 2 {
  %3 = getelementptr inbounds nuw i8, ptr %0, i64 16
  %4 = load i32, ptr %3, align 8, !tbaa !63
  %5 = getelementptr inbounds nuw i8, ptr %1, i64 16
  %6 = load i32, ptr %5, align 8, !tbaa !63
  %.not = icmp eq i32 %4, %6
  br i1 %.not, label %7, label %_ZNK11OpenImageIO6v3_1_08TypeDescneERKS1_.exit.thread

7:                                                ; preds = %2
  %8 = load ptr, ptr %0, align 8, !tbaa !35
  %9 = getelementptr inbounds nuw i8, ptr %8, i64 216
  %10 = load i64, ptr %9, align 8, !tbaa !93
  %11 = load ptr, ptr %1, align 8, !tbaa !35
  %12 = getelementptr inbounds nuw i8, ptr %11, i64 216
  %13 = load i64, ptr %12, align 8, !tbaa !93
  %.not11 = icmp eq i64 %10, %13
  br i1 %.not11, label %.preheader, label %_ZNK11OpenImageIO6v3_1_08TypeDescneERKS1_.exit.thread

.preheader:                                       ; preds = %7
  %14 = icmp slt i32 %4, 1
  br i1 %14, label %_ZNK11OpenImageIO6v3_1_08TypeDescneERKS1_.exit.thread, label %_ZNK11OpenImageIO6v3_1_08DeepData11channeltypeEi.exit.lr.ph

_ZNK11OpenImageIO6v3_1_08DeepData11channeltypeEi.exit.lr.ph: ; preds = %.preheader
  %15 = load ptr, ptr %8, align 8, !tbaa !9
  %16 = load ptr, ptr %11, align 8, !tbaa !9
  %wide.trip.count = zext nneg i32 %4 to i64
  br label %_ZNK11OpenImageIO6v3_1_08DeepData11channeltypeEi.exit

_ZNK11OpenImageIO6v3_1_08DeepData11channeltypeEi.exit: ; preds = %_ZNK11OpenImageIO6v3_1_08DeepData11channeltypeEi.exit, %_ZNK11OpenImageIO6v3_1_08DeepData11channeltypeEi.exit.lr.ph
  %indvars.iv = phi i64 [ 0, %_ZNK11OpenImageIO6v3_1_08DeepData11channeltypeEi.exit.lr.ph ], [ %indvars.iv.next, %_ZNK11OpenImageIO6v3_1_08DeepData11channeltypeEi.exit ]
  %17 = getelementptr inbounds nuw %"struct.OpenImageIO::v3_1_0::TypeDesc", ptr %15, i64 %indvars.iv
  %18 = load i64, ptr %17, align 4
  %19 = getelementptr inbounds nuw %"struct.OpenImageIO::v3_1_0::TypeDesc", ptr %16, i64 %indvars.iv
  %20 = load i64, ptr %19, align 4
  %21 = trunc i64 %18 to i24
  %22 = trunc i64 %20 to i24
  %or.cond35.not38 = icmp eq i24 %21, %22
  %.unshifted = xor i64 %18, %20
  %23 = icmp ult i64 %.unshifted, 4294967296
  %or.cond36.not = and i1 %or.cond35.not38, %23
  %indvars.iv.next = add nuw nsw i64 %indvars.iv, 1
  %exitcond.not = icmp ne i64 %indvars.iv.next, %wide.trip.count
  %or.cond.not = select i1 %or.cond36.not, i1 %exitcond.not, i1 false
  br i1 %or.cond.not, label %_ZNK11OpenImageIO6v3_1_08DeepData11channeltypeEi.exit, label %_ZNK11OpenImageIO6v3_1_08TypeDescneERKS1_.exit.thread, !llvm.loop !125

_ZNK11OpenImageIO6v3_1_08TypeDescneERKS1_.exit.thread: ; preds = %_ZNK11OpenImageIO6v3_1_08DeepData11channeltypeEi.exit, %.preheader, %7, %2
  %.010 = phi i1 [ false, %2 ], [ false, %7 ], [ true, %.preheader ], [ %or.cond36.not, %_ZNK11OpenImageIO6v3_1_08DeepData11channeltypeEi.exit ]
  ret i1 %.010
}